; ModuleID = '38/814.c'
source_filename = "38/814.c"
target datalayout = "e-m:e-p270:32:32-p271:32:32-p272:64:64-i64:64-f80:128-n8:16:32:64-S128"
target triple = "x86_64-pc-linux-gnu"

%struct.anon = type { i32, [100 x double], double }

@.str = private unnamed_addr constant [3 x i8] c"%d\00", align 1
@.str.1 = private unnamed_addr constant [4 x i8] c"%lf\00", align 1
@.str.2 = private unnamed_addr constant [7 x i8] c"%.5lf\0A\00", align 1

; Function Attrs: noinline nounwind uwtable
define dso_local i32 @main() #0 {
  %1 = alloca i32, align 4
  %2 = alloca i32, align 4
  %3 = alloca i32, align 4
  %4 = alloca i32, align 4
  %5 = alloca [100 x %struct.anon], align 16
  %6 = alloca double, align 8
  store i32 0, i32* %1, align 4
  %7 = call i32 (i8*, ...) @__isoc99_scanf(i8* getelementptr inbounds ([3 x i8], [3 x i8]* @.str, i64 0, i64 0), i32* %2)
  store i32 0, i32* %3, align 4
  br label %8

8:                                                ; preds = %39, %0
  %9 = load i32, i32* %3, align 4
  %10 = load i32, i32* %2, align 4
  %11 = icmp slt i32 %9, %10
  br i1 %11, label %12, label %42

12:                                               ; preds = %8
  %13 = load i32, i32* %3, align 4
  %14 = sext i32 %13 to i64
  %15 = getelementptr inbounds [100 x %struct.anon], [100 x %struct.anon]* %5, i64 0, i64 %14
  %16 = getelementptr inbounds %struct.anon, %struct.anon* %15, i32 0, i32 0
  %17 = call i32 (i8*, ...) @__isoc99_scanf(i8* getelementptr inbounds ([3 x i8], [3 x i8]* @.str, i64 0, i64 0), i32* %16)
  store i32 0, i32* %4, align 4
  br label %18

18:                                               ; preds = %35, %12
  %19 = load i32, i32* %4, align 4
  %20 = load i32, i32* %3, align 4
  %21 = sext i32 %20 to i64
  %22 = getelementptr inbounds [100 x %struct.anon], [100 x %struct.anon]* %5, i64 0, i64 %21
  %23 = getelementptr inbounds %struct.anon, %struct.anon* %22, i32 0, i32 0
  %24 = load i32, i32* %23, align 16
  %25 = icmp slt i32 %19, %24
  br i1 %25, label %26, label %38

26:                                               ; preds = %18
  %27 = load i32, i32* %3, align 4
  %28 = sext i32 %27 to i64
  %29 = getelementptr inbounds [100 x %struct.anon], [100 x %struct.anon]* %5, i64 0, i64 %28
  %30 = getelementptr inbounds %struct.anon, %struct.anon* %29, i32 0, i32 1
  %31 = load i32, i32* %4, align 4
  %32 = sext i32 %31 to i64
  %33 = getelementptr inbounds [100 x double], [100 x double]* %30, i64 0, i64 %32
  %34 = call i32 (i8*, ...) @__isoc99_scanf(i8* getelementptr inbounds ([4 x i8], [4 x i8]* @.str.1, i64 0, i64 0), double* %33)
  br label %35

35:                                               ; preds = %26
  %36 = load i32, i32* %4, align 4
  %37 = add nsw i32 %36, 1
  store i32 %37, i32* %4, align 4
  br label %18

38:                                               ; preds = %18
  br label %39

39:                                               ; preds = %38
  %40 = load i32, i32* %3, align 4
  %41 = add nsw i32 %40, 1
  store i32 %41, i32* %3, align 4
  br label %8

42:                                               ; preds = %8
  store i32 0, i32* %3, align 4
  br label %43

43:                                               ; preds = %160, %42
  %44 = load i32, i32* %3, align 4
  %45 = load i32, i32* %2, align 4
  %46 = icmp slt i32 %44, %45
  br i1 %46, label %47, label %163

47:                                               ; preds = %43
  store double 0.000000e+00, double* %6, align 8
  store i32 0, i32* %4, align 4
  br label %48

48:                                               ; preds = %68, %47
  %49 = load i32, i32* %4, align 4
  %50 = load i32, i32* %3, align 4
  %51 = sext i32 %50 to i64
  %52 = getelementptr inbounds [100 x %struct.anon], [100 x %struct.anon]* %5, i64 0, i64 %51
  %53 = getelementptr inbounds %struct.anon, %struct.anon* %52, i32 0, i32 0
  %54 = load i32, i32* %53, align 16
  %55 = icmp slt i32 %49, %54
  br i1 %55, label %56, label %71

56:                                               ; preds = %48
  %57 = load i32, i32* %3, align 4
  %58 = sext i32 %57 to i64
  %59 = getelementptr inbounds [100 x %struct.anon], [100 x %struct.anon]* %5, i64 0, i64 %58
  %60 = getelementptr inbounds %struct.anon, %struct.anon* %59, i32 0, i32 1
  %61 = load i32, i32* %4, align 4
  %62 = sext i32 %61 to i64
  %63 = getelementptr inbounds [100 x double], [100 x double]* %60, i64 0, i64 %62
  %64 = load double, double* %63, align 8
  %65 = fmul double %64, 1.000000e+00
  %66 = load double, double* %6, align 8
  %67 = fadd double %66, %65
  store double %67, double* %6, align 8
  br label %68

68:                                               ; preds = %56
  %69 = load i32, i32* %4, align 4
  %70 = add nsw i32 %69, 1
  store i32 %70, i32* %4, align 4
  br label %48

71:                                               ; preds = %48
  %72 = load i32, i32* %3, align 4
  %73 = sext i32 %72 to i64
  %74 = getelementptr inbounds [100 x %struct.anon], [100 x %struct.anon]* %5, i64 0, i64 %73
  %75 = getelementptr inbounds %struct.anon, %struct.anon* %74, i32 0, i32 0
  %76 = load i32, i32* %75, align 16
  %77 = sitofp i32 %76 to double
  %78 = load double, double* %6, align 8
  %79 = fdiv double %78, %77
  store double %79, double* %6, align 8
  %80 = load i32, i32* %3, align 4
  %81 = sext i32 %80 to i64
  %82 = getelementptr inbounds [100 x %struct.anon], [100 x %struct.anon]* %5, i64 0, i64 %81
  %83 = getelementptr inbounds %struct.anon, %struct.anon* %82, i32 0, i32 2
  store double 0.000000e+00, double* %83, align 8
  store i32 0, i32* %4, align 4
  br label %84

84:                                               ; preds = %124, %71
  %85 = load i32, i32* %4, align 4
  %86 = load i32, i32* %3, align 4
  %87 = sext i32 %86 to i64
  %88 = getelementptr inbounds [100 x %struct.anon], [100 x %struct.anon]* %5, i64 0, i64 %87
  %89 = getelementptr inbounds %struct.anon, %struct.anon* %88, i32 0, i32 0
  %90 = load i32, i32* %89, align 16
  %91 = icmp slt i32 %85, %90
  br i1 %91, label %92, label %127

92:                                               ; preds = %84
  %93 = load i32, i32* %3, align 4
  %94 = sext i32 %93 to i64
  %95 = getelementptr inbounds [100 x %struct.anon], [100 x %struct.anon]* %5, i64 0, i64 %94
  %96 = getelementptr inbounds %struct.anon, %struct.anon* %95, i32 0, i32 1
  %97 = load i32, i32* %4, align 4
  %98 = sext i32 %97 to i64
  %99 = getelementptr inbounds [100 x double], [100 x double]* %96, i64 0, i64 %98
  %100 = load double, double* %99, align 8
  %101 = load double, double* %6, align 8
  %102 = fsub double %100, %101
  %103 = load i32, i32* %3, align 4
  %104 = sext i32 %103 to i64
  %105 = getelementptr inbounds [100 x %struct.anon], [100 x %struct.anon]* %5, i64 0, i64 %104
  %106 = getelementptr inbounds %struct.anon, %struct.anon* %105, i32 0, i32 1
  %107 = load i32, i32* %4, align 4
  %108 = sext i32 %107 to i64
  %109 = getelementptr inbounds [100 x double], [100 x double]* %106, i64 0, i64 %108
  %110 = load double, double* %109, align 8
  %111 = load double, double* %6, align 8
  %112 = fsub double %110, %111
  %113 = fmul double %102, %112
  %114 = load i32, i32* %3, align 4
  %115 = sext i32 %114 to i64
  %116 = getelementptr inbounds [100 x %struct.anon], [100 x %struct.anon]* %5, i64 0, i64 %115
  %117 = getelementptr inbounds %struct.anon, %struct.anon* %116, i32 0, i32 2
  %118 = load double, double* %117, align 8
  %119 = fadd double %113, %118
  %120 = load i32, i32* %3, align 4
  %121 = sext i32 %120 to i64
  %122 = getelementptr inbounds [100 x %struct.anon], [100 x %struct.anon]* %5, i64 0, i64 %121
  %123 = getelementptr inbounds %struct.anon, %struct.anon* %122, i32 0, i32 2
  store double %119, double* %123, align 8
  br label %124

124:                                              ; preds = %92
  %125 = load i32, i32* %4, align 4
  %126 = add nsw i32 %125, 1
  store i32 %126, i32* %4, align 4
  br label %84

127:                                              ; preds = %84
  %128 = load i32, i32* %3, align 4
  %129 = sext i32 %128 to i64
  %130 = getelementptr inbounds [100 x %struct.anon], [100 x %struct.anon]* %5, i64 0, i64 %129
  %131 = getelementptr inbounds %struct.anon, %struct.anon* %130, i32 0, i32 2
  %132 = load double, double* %131, align 8
  %133 = load i32, i32* %3, align 4
  %134 = sext i32 %133 to i64
  %135 = getelementptr inbounds [100 x %struct.anon], [100 x %struct.anon]* %5, i64 0, i64 %134
  %136 = getelementptr inbounds %struct.anon, %struct.anon* %135, i32 0, i32 0
  %137 = load i32, i32* %136, align 16
  %138 = sitofp i32 %137 to double
  %139 = fdiv double %132, %138
  %140 = load i32, i32* %3, align 4
  %141 = sext i32 %140 to i64
  %142 = getelementptr inbounds [100 x %struct.anon], [100 x %struct.anon]* %5, i64 0, i64 %141
  %143 = getelementptr inbounds %struct.anon, %struct.anon* %142, i32 0, i32 2
  store double %139, double* %143, align 8
  %144 = load i32, i32* %3, align 4
  %145 = sext i32 %144 to i64
  %146 = getelementptr inbounds [100 x %struct.anon], [100 x %struct.anon]* %5, i64 0, i64 %145
  %147 = getelementptr inbounds %struct.anon, %struct.anon* %146, i32 0, i32 2
  %148 = load double, double* %147, align 8
  %149 = call double @sqrt(double %148) #3
  %150 = load i32, i32* %3, align 4
  %151 = sext i32 %150 to i64
  %152 = getelementptr inbounds [100 x %struct.anon], [100 x %struct.anon]* %5, i64 0, i64 %151
  %153 = getelementptr inbounds %struct.anon, %struct.anon* %152, i32 0, i32 2
  store double %149, double* %153, align 8
  %154 = load i32, i32* %3, align 4
  %155 = sext i32 %154 to i64
  %156 = getelementptr inbounds [100 x %struct.anon], [100 x %struct.anon]* %5, i64 0, i64 %155
  %157 = getelementptr inbounds %struct.anon, %struct.anon* %156, i32 0, i32 2
  %158 = load double, double* %157, align 8
  %159 = call i32 (i8*, ...) @printf(i8* getelementptr inbounds ([7 x i8], [7 x i8]* @.str.2, i64 0, i64 0), double %158)
  br label %160

160:                                              ; preds = %127
  %161 = load i32, i32* %3, align 4
  %162 = add nsw i32 %161, 1
  store i32 %162, i32* %3, align 4
  br label %43

163:                                              ; preds = %43
  ret i32 0
}

declare dso_local i32 @__isoc99_scanf(i8*, ...) #1

; Function Attrs: nounwind
declare dso_local double @sqrt(double) #2

declare dso_local i32 @printf(i8*, ...) #1


!llvm.module.flags = !{!0}
!llvm.ident = !{!1}

!0 = !{i32 1, !"wchar_size", i32 4}
!1 = !{!"clang version 10.0.0-4ubuntu1 "}
